target datalayout = "e-m:e-p270:32:32-p271:32:32-p272:64:64-i64:64-i128:128-f80:128-n8:16:32:64-S128"
target triple = "x86_64-pc-linux-gnu"

%struct.expert_field = type { i32, i32 }
%struct._rose_ctx_t = type { i32, ptr, ptr, ptr, ptr, ptr, ptr, i32, i8, ptr, i64, %struct.anon, ptr }
%struct.anon = type { i32, i32, i32, ptr, ptr }
%struct._h450_err_t = type { i32, ptr }
%struct._proto_node = type { ptr, ptr, ptr, ptr, ptr, ptr, ptr }
%struct.field_info = type { ptr, i32, i32, i32, i32, i32, i32, ptr, ptr, ptr, i32, i32 }

@hf_h450_error = internal global i32 0, align 4
@ei_h450_unsupported_error_type = internal global %struct.expert_field zeroinitializer, align 4
@.str.821 = private unnamed_addr constant [29 x i8] c"%s:%u: failed assertion \22%s\22\00", align 1
@.str.822 = private unnamed_addr constant [30 x i8] c"epan/dissectors/packet-h450.c\00", align 1
@.str.823 = private unnamed_addr constant [5 x i8] c"rctx\00", align 1
@.str.824 = private unnamed_addr constant [6 x i8] c" - %s\00", align 1
@.str.825 = private unnamed_addr constant [4 x i8] c" %s\00", align 1

; Function Attrs: inlinehint nounwind null_pointer_is_valid sspstrong uwtable
define internal void @proto_item_set_hidden(ptr noundef %0) #3 {
  %2 = alloca ptr, align 8
  store ptr %0, ptr %2, align 8
  %3 = load ptr, ptr %2, align 8
  %4 = icmp ne ptr %3, null
  br i1 %4, label %5, label %24

5:                                                ; preds = %1
  br label %6

6:                                                ; preds = %5
  %7 = load ptr, ptr %2, align 8
  %8 = getelementptr inbounds nuw %struct._proto_node, ptr %7, i32 0, i32 5
  %9 = load ptr, ptr %8, align 8
  %10 = icmp ne ptr %9, null
  br i1 %10, label %11, label %22

11:                                               ; preds = %6
  %12 = load ptr, ptr %2, align 8
  %13 = getelementptr inbounds nuw %struct._proto_node, ptr %12, i32 0, i32 5
  %14 = load ptr, ptr %13, align 8
  %15 = getelementptr inbounds nuw %struct.field_info, ptr %14, i32 0, i32 6
  %16 = load i32, ptr %15, align 4
  %17 = or i32 %16, 1
  %18 = load ptr, ptr %2, align 8
  %19 = getelementptr inbounds nuw %struct._proto_node, ptr %18, i32 0, i32 5
  %20 = load ptr, ptr %19, align 8
  %21 = getelementptr inbounds nuw %struct.field_info, ptr %20, i32 0, i32 6
  store i32 %17, ptr %21, align 4
  br label %22

22:                                               ; preds = %11, %6
  br label %23

23:                                               ; preds = %22
  br label %24

24:                                               ; preds = %23, %1
  ret void
}

; Function Attrs: nounwind null_pointer_is_valid sspstrong uwtable
define internal ptr @get_err(i32 noundef %0) #5 {
  %2 = alloca ptr, align 8
  %3 = alloca i32, align 4
  %4 = alloca i32, align 4
  %5 = alloca i32, align 4
  store i32 %0, ptr %3, align 4
  call void @llvm.lifetime.start.p0(i64 4, ptr %4) #6
  store i32 37, ptr %4, align 4
  br label %6

6:                                                ; preds = %22, %1
  %7 = load i32, ptr %4, align 4
  %8 = icmp sge i32 %7, 0
  br i1 %8, label %9, label %25

9:                                                ; preds = %6
  %10 = load i32, ptr %4, align 4
  %11 = sext i32 %10 to i64
  %12 = getelementptr [38 x %struct._h450_err_t], ptr @h450_err_tab, i64 0, i64 %11
  %13 = getelementptr inbounds nuw %struct._h450_err_t, ptr %12, i32 0, i32 0
  %14 = load i32, ptr %13, align 16
  %15 = load i32, ptr %3, align 4
  %16 = icmp eq i32 %14, %15
  br i1 %16, label %17, label %21

17:                                               ; preds = %9
  %18 = load i32, ptr %4, align 4
  %19 = sext i32 %18 to i64
  %20 = getelementptr [38 x %struct._h450_err_t], ptr @h450_err_tab, i64 0, i64 %19
  store ptr %20, ptr %2, align 8
  store i32 1, ptr %5, align 4
  br label %26

21:                                               ; preds = %9
  br label %22

22:                                               ; preds = %21
  %23 = load i32, ptr %4, align 4
  %24 = add i32 %23, -1
  store i32 %24, ptr %4, align 4
  br label %6, !llvm.loop !10

25:                                               ; preds = %6
  store ptr null, ptr %2, align 8
  store i32 1, ptr %5, align 4
  br label %26

26:                                               ; preds = %25, %17
  call void @llvm.lifetime.end.p0(i64 4, ptr %4) #6
  %27 = load ptr, ptr %2, align 8
  ret ptr %27
}

; Function Attrs: null_pointer_is_valid sspstrong uwtable
define internal i32 @dissect_h450_err(ptr noundef %0, ptr noundef %1, ptr noundef %2, ptr noundef %3) #0 {
  %5 = alloca i32, align 4
  %6 = alloca ptr, align 8
  %7 = alloca ptr, align 8
  %8 = alloca ptr, align 8
  %9 = alloca ptr, align 8
  %10 = alloca ptr, align 8
  %11 = alloca i32, align 4
  %12 = alloca ptr, align 8
  %13 = alloca i32, align 4
  %14 = alloca ptr, align 8
  %15 = alloca ptr, align 8
  %16 = alloca i32, align 4
  store ptr %0, ptr %6, align 8
  store ptr %1, ptr %7, align 8
  store ptr %2, ptr %8, align 8
  store ptr %3, ptr %9, align 8
  call void @llvm.lifetime.start.p0(i64 8, ptr %10) #6
  call void @llvm.lifetime.start.p0(i64 4, ptr %11) #6
  store i32 0, ptr %11, align 4
  call void @llvm.lifetime.start.p0(i64 8, ptr %12) #6
  call void @llvm.lifetime.start.p0(i64 4, ptr %13) #6
  call void @llvm.lifetime.start.p0(i64 8, ptr %14) #6
  call void @llvm.lifetime.start.p0(i64 8, ptr %15) #6
  %17 = load ptr, ptr %9, align 8
  %18 = icmp eq ptr %17, null
  br i1 %18, label %19, label %20

19:                                               ; preds = %4
  store i32 0, ptr %5, align 4
  store i32 1, ptr %16, align 4
  br label %122

20:                                               ; preds = %4
  %21 = load ptr, ptr %9, align 8
  %22 = call ptr @get_rose_ctx(ptr noundef %21)
  store ptr %22, ptr %12, align 8
  %23 = load ptr, ptr %12, align 8
  %24 = icmp ne ptr %23, null
  br i1 %24, label %25, label %26

25:                                               ; preds = %20
  br label %28

26:                                               ; preds = %20
  call void (ptr, ...) @proto_report_dissector_bug(ptr noundef @.str.821, ptr noundef @.str.822, i32 noundef 4762, ptr noundef @.str.823) #7
  unreachable

27:                                               ; No predecessors!
  br label %28

28:                                               ; preds = %27, %25
  %29 = load ptr, ptr %12, align 8
  %30 = getelementptr inbounds nuw %struct._rose_ctx_t, ptr %29, i32 0, i32 11
  %31 = getelementptr inbounds nuw %struct.anon, ptr %30, i32 0, i32 0
  %32 = load i32, ptr %31, align 8
  %33 = icmp ne i32 %32, 3
  br i1 %33, label %34, label %36

34:                                               ; preds = %28
  %35 = load i32, ptr %11, align 4
  store i32 %35, ptr %5, align 4
  store i32 1, ptr %16, align 4
  br label %122

36:                                               ; preds = %28
  %37 = load ptr, ptr %12, align 8
  %38 = getelementptr inbounds nuw %struct._rose_ctx_t, ptr %37, i32 0, i32 11
  %39 = getelementptr inbounds nuw %struct.anon, ptr %38, i32 0, i32 1
  %40 = load i32, ptr %39, align 4
  %41 = icmp ne i32 %40, 0
  br i1 %41, label %42, label %44

42:                                               ; preds = %36
  %43 = load i32, ptr %11, align 4
  store i32 %43, ptr %5, align 4
  store i32 1, ptr %16, align 4
  br label %122

44:                                               ; preds = %36
  %45 = load ptr, ptr %12, align 8
  %46 = getelementptr inbounds nuw %struct._rose_ctx_t, ptr %45, i32 0, i32 11
  %47 = getelementptr inbounds nuw %struct.anon, ptr %46, i32 0, i32 2
  %48 = load i32, ptr %47, align 8
  store i32 %48, ptr %13, align 4
  %49 = load i32, ptr %13, align 4
  %50 = call ptr @get_err(i32 noundef %49)
  store ptr %50, ptr %14, align 8
  %51 = load ptr, ptr %14, align 8
  %52 = icmp ne ptr %51, null
  br i1 %52, label %55, label %53

53:                                               ; preds = %44
  %54 = load i32, ptr %11, align 4
  store i32 %54, ptr %5, align 4
  store i32 1, ptr %16, align 4
  br label %122

55:                                               ; preds = %44
  %56 = load ptr, ptr %8, align 8
  %57 = load i32, ptr @hf_h450_error, align 4
  %58 = load ptr, ptr %6, align 8
  %59 = load i32, ptr %13, align 4
  %60 = call ptr @proto_tree_add_uint(ptr noundef %56, i32 noundef %57, ptr noundef %58, i32 noundef 0, i32 noundef 0, i32 noundef %59)
  store ptr %60, ptr %10, align 8
  %61 = load ptr, ptr %10, align 8
  call void @proto_item_set_hidden(ptr noundef %61)
  %62 = load i32, ptr %13, align 4
  %63 = call ptr @try_val_to_str(i32 noundef %62, ptr noundef @h450_str_error)
  store ptr %63, ptr %15, align 8
  %64 = load ptr, ptr %15, align 8
  %65 = icmp ne ptr %64, null
  br i1 %65, label %66, label %85

66:                                               ; preds = %55
  %67 = load ptr, ptr %12, align 8
  %68 = getelementptr inbounds nuw %struct._rose_ctx_t, ptr %67, i32 0, i32 11
  %69 = getelementptr inbounds nuw %struct.anon, ptr %68, i32 0, i32 4
  %70 = load ptr, ptr %69, align 8
  %71 = load ptr, ptr %15, align 8
  call void (ptr, ptr, ...) @proto_item_append_text(ptr noundef %70, ptr noundef @.str.824, ptr noundef %71)
  %72 = load ptr, ptr %12, align 8
  %73 = getelementptr inbounds nuw %struct._rose_ctx_t, ptr %72, i32 0, i32 7
  %74 = load i32, ptr %73, align 8
  %75 = icmp sge i32 %74, 0
  br i1 %75, label %76, label %84

76:                                               ; preds = %66
  %77 = load ptr, ptr %8, align 8
  %78 = call ptr @proto_tree_get_parent(ptr noundef %77)
  %79 = load ptr, ptr %12, align 8
  %80 = getelementptr inbounds nuw %struct._rose_ctx_t, ptr %79, i32 0, i32 7
  %81 = load i32, ptr %80, align 8
  %82 = call ptr @proto_item_get_parent_nth(ptr noundef %78, i32 noundef %81)
  %83 = load ptr, ptr %15, align 8
  call void (ptr, ptr, ...) @proto_item_append_text(ptr noundef %82, ptr noundef @.str.825, ptr noundef %83)
  br label %84

84:                                               ; preds = %76, %66
  br label %85

85:                                               ; preds = %84, %55
  %86 = load ptr, ptr %14, align 8
  %87 = getelementptr inbounds nuw %struct._h450_err_t, ptr %86, i32 0, i32 1
  %88 = load ptr, ptr %87, align 8
  %89 = icmp ne ptr %88, null
  br i1 %89, label %90, label %103

90:                                               ; preds = %85
  %91 = load ptr, ptr %6, align 8
  %92 = load i32, ptr %11, align 4
  %93 = call i32 @tvb_reported_length_remaining(ptr noundef %91, i32 noundef %92)
  %94 = icmp sgt i32 %93, 0
  br i1 %94, label %95, label %103

95:                                               ; preds = %90
  %96 = load ptr, ptr %14, align 8
  %97 = getelementptr inbounds nuw %struct._h450_err_t, ptr %96, i32 0, i32 1
  %98 = load ptr, ptr %97, align 8
  %99 = load ptr, ptr %6, align 8
  %100 = load ptr, ptr %7, align 8
  %101 = load ptr, ptr %8, align 8
  %102 = call i32 %98(ptr noundef %99, ptr noundef %100, ptr noundef %101, ptr noundef null)
  store i32 %102, ptr %11, align 4
  br label %120

103:                                              ; preds = %90, %85
  %104 = load ptr, ptr %6, align 8
  %105 = load i32, ptr %11, align 4
  %106 = call i32 @tvb_reported_length_remaining(ptr noundef %104, i32 noundef %105)
  %107 = icmp sgt i32 %106, 0
  br i1 %107, label %108, label %119

108:                                              ; preds = %103
  %109 = load ptr, ptr %8, align 8
  %110 = load ptr, ptr %7, align 8
  %111 = load ptr, ptr %6, align 8
  %112 = load i32, ptr %11, align 4
  %113 = call ptr @proto_tree_add_expert(ptr noundef %109, ptr noundef %110, ptr noundef @ei_h450_unsupported_error_type, ptr noundef %111, i32 noundef %112, i32 noundef -1)
  %114 = load ptr, ptr %6, align 8
  %115 = load i32, ptr %11, align 4
  %116 = call i32 @tvb_reported_length_remaining(ptr noundef %114, i32 noundef %115)
  %117 = load i32, ptr %11, align 4
  %118 = add i32 %117, %116
  store i32 %118, ptr %11, align 4
  br label %119

119:                                              ; preds = %108, %103
  br label %120

120:                                              ; preds = %119, %95
  %121 = load i32, ptr %11, align 4
  store i32 %121, ptr %5, align 4
  store i32 1, ptr %16, align 4
  br label %122

122:                                              ; preds = %120, %53, %42, %34, %19
  call void @llvm.lifetime.end.p0(i64 8, ptr %15) #6
  call void @llvm.lifetime.end.p0(i64 8, ptr %14) #6
  call void @llvm.lifetime.end.p0(i64 4, ptr %13) #6
  call void @llvm.lifetime.end.p0(i64 8, ptr %12) #6
  call void @llvm.lifetime.end.p0(i64 4, ptr %11) #6
  call void @llvm.lifetime.end.p0(i64 8, ptr %10) #6
  %123 = load i32, ptr %5, align 4
  ret i32 %123
}